; Function Attrs: mustprogress uwtable
define hidden void @_ZN2cv4epnp19find_betas_approx_3EPK5CvMatS3_Pd(ptr nonnull readnone align 8 captures(none) %0, ptr noundef readonly captures(none) %1, ptr noundef %2, ptr noundef writeonly captures(none) %3) local_unnamed_addr #3 align 2 {
  %5 = alloca [30 x double], align 16
  %6 = alloca [5 x double], align 16
  %7 = alloca %struct.CvMat, align 8
  %8 = alloca %struct.CvMat, align 8
  call void @llvm.lifetime.start.p0(i64 240, ptr nonnull %5) #24
  call void @llvm.memset.p0.i64(ptr noundef nonnull align 16 dereferenceable(240) %5, i8 0, i64 240, i1 false)
  call void @llvm.lifetime.start.p0(i64 40, ptr nonnull %6) #24
  call void @llvm.memset.p0.i64(ptr noundef nonnull align 16 dereferenceable(40) %6, i8 0, i64 40, i1 false)
  call void @llvm.lifetime.start.p0(i64 40, ptr nonnull %7) #24
  store i32 1111638022, ptr %7, align 8, !tbaa !64, !alias.scope !153
  %9 = getelementptr inbounds nuw i8, ptr %7, i64 36
  store i32 5, ptr %9, align 4, !tbaa !69, !alias.scope !153
  %10 = getelementptr inbounds nuw i8, ptr %7, i64 32
  store i32 6, ptr %10, align 8, !tbaa !69, !alias.scope !153
  %11 = getelementptr inbounds nuw i8, ptr %7, i64 4
  store i32 40, ptr %11, align 4, !tbaa !70, !alias.scope !153
  %12 = getelementptr inbounds nuw i8, ptr %7, i64 24
  store ptr %5, ptr %12, align 8, !tbaa !69, !alias.scope !153
  %13 = getelementptr inbounds nuw i8, ptr %7, i64 8
  store ptr null, ptr %13, align 8, !tbaa !71, !alias.scope !153
  %14 = getelementptr inbounds nuw i8, ptr %7, i64 16
  store i32 0, ptr %14, align 8, !tbaa !72, !alias.scope !153
  call void @llvm.lifetime.start.p0(i64 40, ptr nonnull %8) #24
  store i32 1111638022, ptr %8, align 8, !tbaa !64, !alias.scope !156
  %15 = getelementptr inbounds nuw i8, ptr %8, i64 36
  store i32 1, ptr %15, align 4, !tbaa !69, !alias.scope !156
  %16 = getelementptr inbounds nuw i8, ptr %8, i64 32
  store i32 5, ptr %16, align 8, !tbaa !69, !alias.scope !156
  %17 = getelementptr inbounds nuw i8, ptr %8, i64 4
  store i32 8, ptr %17, align 4, !tbaa !70, !alias.scope !156
  %18 = getelementptr inbounds nuw i8, ptr %8, i64 24
  store ptr %6, ptr %18, align 8, !tbaa !69, !alias.scope !156
  %19 = getelementptr inbounds nuw i8, ptr %8, i64 8
  store ptr null, ptr %19, align 8, !tbaa !71, !alias.scope !156
  %20 = getelementptr inbounds nuw i8, ptr %8, i64 16
  store i32 0, ptr %20, align 8, !tbaa !72, !alias.scope !156
  %21 = load i32, ptr %1, align 8, !tbaa !64
  %22 = and i32 %21, 4095
  %23 = icmp eq i32 %22, 5
  %24 = getelementptr inbounds nuw i8, ptr %1, i64 24
  %25 = getelementptr inbounds nuw i8, ptr %1, i64 4
  %26 = load i32, ptr %25, align 4, !tbaa !70
  %27 = sext i32 %26 to i64
  %28 = load ptr, ptr %24, align 8, !tbaa !69
  br i1 %23, label %_ZL6cvmSetP5CvMatiid.exit40.us.preheader, label %_ZL6cvmSetP5CvMatiid.exit40.preheader

_ZL6cvmSetP5CvMatiid.exit40.preheader:            ; preds = %4
  %invariant.gep = getelementptr i8, ptr %28, i64 8
  %invariant.gep55 = getelementptr i8, ptr %28, i64 16
  %29 = load ptr, ptr %24, align 8, !tbaa !69
  %invariant.gep57 = getelementptr i8, ptr %29, i64 24
  %invariant.gep59 = getelementptr i8, ptr %29, i64 32
  br label %_ZL6cvmSetP5CvMatiid.exit40

_ZL6cvmSetP5CvMatiid.exit40.us.preheader:         ; preds = %4
  %invariant.gep61 = getelementptr i8, ptr %28, i64 4
  %30 = load ptr, ptr %24, align 8, !tbaa !69
  %invariant.gep63 = getelementptr i8, ptr %30, i64 8
  %invariant.gep65 = getelementptr i8, ptr %30, i64 12
  %invariant.gep67 = getelementptr i8, ptr %30, i64 16
  br label %_ZL6cvmSetP5CvMatiid.exit40.us

_ZL6cvmSetP5CvMatiid.exit40.us:                   ; preds = %_ZL6cvmSetP5CvMatiid.exit40.us.preheader, %_ZL6cvmSetP5CvMatiid.exit40.us
  %indvars.iv50 = phi i64 [ 0, %_ZL6cvmSetP5CvMatiid.exit40.us.preheader ], [ %indvars.iv.next51, %_ZL6cvmSetP5CvMatiid.exit40.us ]
  %31 = mul nsw i64 %indvars.iv50, %27
  %32 = getelementptr inbounds nuw i8, ptr %28, i64 %31
  %33 = load float, ptr %32, align 4, !tbaa !18
  %34 = fpext float %33 to double
  %35 = mul nuw nsw i64 %indvars.iv50, 40
  %36 = getelementptr inbounds nuw i8, ptr %5, i64 %35
  store double %34, ptr %36, align 8, !tbaa !32
  %gep62 = getelementptr i8, ptr %invariant.gep61, i64 %31
  %37 = load float, ptr %gep62, align 4, !tbaa !18
  %38 = fpext float %37 to double
  %39 = getelementptr inbounds nuw i8, ptr %36, i64 8
  store double %38, ptr %39, align 8, !tbaa !32
  %gep64 = getelementptr i8, ptr %invariant.gep63, i64 %31
  %40 = load float, ptr %gep64, align 4, !tbaa !18
  %41 = fpext float %40 to double
  %42 = getelementptr inbounds nuw i8, ptr %36, i64 16
  store double %41, ptr %42, align 8, !tbaa !32
  %gep66 = getelementptr i8, ptr %invariant.gep65, i64 %31
  %43 = load float, ptr %gep66, align 4, !tbaa !18
  %44 = fpext float %43 to double
  %45 = getelementptr inbounds nuw i8, ptr %36, i64 24
  store double %44, ptr %45, align 8, !tbaa !32
  %gep68 = getelementptr i8, ptr %invariant.gep67, i64 %31
  %46 = load float, ptr %gep68, align 4, !tbaa !18
  %47 = fpext float %46 to double
  %48 = getelementptr inbounds nuw i8, ptr %36, i64 32
  store double %47, ptr %48, align 8, !tbaa !32
  %indvars.iv.next51 = add nuw nsw i64 %indvars.iv50, 1
  %exitcond53.not = icmp eq i64 %indvars.iv.next51, 6
  br i1 %exitcond53.not, label %.split47.us, label %_ZL6cvmSetP5CvMatiid.exit40.us, !llvm.loop !159

.split47.us:                                      ; preds = %_ZL6cvmSetP5CvMatiid.exit40, %_ZL6cvmSetP5CvMatiid.exit40.us
  %49 = call i32 @cvSolve(ptr noundef nonnull %7, ptr noundef %2, ptr noundef nonnull %8, i32 noundef 1)
  %50 = load double, ptr %6, align 16, !tbaa !32
  %51 = fcmp olt double %50, 0.000000e+00
  br i1 %51, label %65, label %73

_ZL6cvmSetP5CvMatiid.exit40:                      ; preds = %_ZL6cvmSetP5CvMatiid.exit40.preheader, %_ZL6cvmSetP5CvMatiid.exit40
  %indvars.iv = phi i64 [ 0, %_ZL6cvmSetP5CvMatiid.exit40.preheader ], [ %indvars.iv.next, %_ZL6cvmSetP5CvMatiid.exit40 ]
  %52 = mul nsw i64 %indvars.iv, %27
  %53 = getelementptr inbounds nuw i8, ptr %28, i64 %52
  %54 = load double, ptr %53, align 8, !tbaa !32
  %55 = mul nuw nsw i64 %indvars.iv, 40
  %56 = getelementptr inbounds nuw i8, ptr %5, i64 %55
  store double %54, ptr %56, align 8, !tbaa !32
  %gep = getelementptr i8, ptr %invariant.gep, i64 %52
  %57 = load double, ptr %gep, align 8, !tbaa !32
  %58 = getelementptr inbounds nuw i8, ptr %56, i64 8
  store double %57, ptr %58, align 8, !tbaa !32
  %gep56 = getelementptr i8, ptr %invariant.gep55, i64 %52
  %59 = load double, ptr %gep56, align 8, !tbaa !32
  %60 = getelementptr inbounds nuw i8, ptr %56, i64 16
  store double %59, ptr %60, align 8, !tbaa !32
  %gep58 = getelementptr i8, ptr %invariant.gep57, i64 %52
  %61 = load double, ptr %gep58, align 8, !tbaa !32
  %62 = getelementptr inbounds nuw i8, ptr %56, i64 24
  store double %61, ptr %62, align 8, !tbaa !32
  %gep60 = getelementptr i8, ptr %invariant.gep59, i64 %52
  %63 = load double, ptr %gep60, align 8, !tbaa !32
  %64 = getelementptr inbounds nuw i8, ptr %56, i64 32
  store double %63, ptr %64, align 8, !tbaa !32
  %indvars.iv.next = add nuw nsw i64 %indvars.iv, 1
  %exitcond.not = icmp eq i64 %indvars.iv.next, 6
  br i1 %exitcond.not, label %.split47.us, label %_ZL6cvmSetP5CvMatiid.exit40, !llvm.loop !159

65:                                               ; preds = %.split47.us
  %66 = fneg double %50
  %67 = call double @sqrt(double noundef %66) #24, !tbaa !38
  store double %67, ptr %3, align 8, !tbaa !32
  %68 = getelementptr inbounds nuw i8, ptr %6, i64 16
  %69 = load double, ptr %68, align 16, !tbaa !32
  %70 = fcmp olt double %69, 0.000000e+00
  br i1 %70, label %71, label %79

71:                                               ; preds = %65
  %72 = fneg double %69
  br label %.sink.split

73:                                               ; preds = %.split47.us
  %74 = call double @sqrt(double noundef %50) #24, !tbaa !38
  store double %74, ptr %3, align 8, !tbaa !32
  %75 = getelementptr inbounds nuw i8, ptr %6, i64 16
  %76 = load double, ptr %75, align 16, !tbaa !32
  %77 = fcmp ogt double %76, 0.000000e+00
  br i1 %77, label %.sink.split, label %79

.sink.split:                                      ; preds = %73, %71
  %.sink70 = phi double [ %72, %71 ], [ %76, %73 ]
  %.ph = phi double [ %67, %71 ], [ %74, %73 ]
  %78 = call double @sqrt(double noundef %.sink70) #24, !tbaa !38
  br label %79

79:                                               ; preds = %.sink.split, %73, %65
  %.sink = phi double [ 0.000000e+00, %65 ], [ 0.000000e+00, %73 ], [ %78, %.sink.split ]
  %80 = phi double [ %67, %65 ], [ %74, %73 ], [ %.ph, %.sink.split ]
  %81 = getelementptr inbounds nuw i8, ptr %3, i64 8
  store double %.sink, ptr %81, align 8, !tbaa !32
  %82 = getelementptr inbounds nuw i8, ptr %6, i64 8
  %83 = load double, ptr %82, align 8, !tbaa !32
  %84 = fcmp olt double %83, 0.000000e+00
  br i1 %84, label %85, label %87

85:                                               ; preds = %79
  %86 = fneg double %80
  store double %86, ptr %3, align 8, !tbaa !32
  br label %87

87:                                               ; preds = %85, %79
  %88 = phi double [ %86, %85 ], [ %80, %79 ]
  %89 = getelementptr inbounds nuw i8, ptr %6, i64 24
  %90 = load double, ptr %89, align 8, !tbaa !32
  %91 = fdiv double %90, %88
  %92 = getelementptr inbounds nuw i8, ptr %3, i64 16
  store double %91, ptr %92, align 8, !tbaa !32
  %93 = getelementptr inbounds nuw i8, ptr %3, i64 24
  store double 0.000000e+00, ptr %93, align 8, !tbaa !32
  call void @llvm.lifetime.end.p0(i64 40, ptr nonnull %8) #24
  call void @llvm.lifetime.end.p0(i64 40, ptr nonnull %7) #24
  call void @llvm.lifetime.end.p0(i64 40, ptr nonnull %6) #24
  call void @llvm.lifetime.end.p0(i64 240, ptr nonnull %5) #24
  ret void
}